target datalayout = "e-m:e-p270:32:32-p271:32:32-p272:64:64-i64:64-i128:128-f80:128-n8:16:32:64-S128"
target triple = "x86_64-pc-linux-gnu"

%struct.AVFilterContext = type { ptr, ptr, ptr, ptr, ptr, i32, ptr, ptr, i32, ptr, ptr, i32, i32, ptr, ptr, ptr, ptr, i32, ptr, i32, i32 }
%struct.SpeechNormalizerContext = type { ptr, double, double, double, double, double, double, double, ptr, %struct.AVChannelLayout, i32, i32, ptr, double, i32, i32, i64, %struct.FFBufQueue, ptr, [2 x ptr] }
%struct.AVChannelLayout = type { i32, i32, %union.anon.1, ptr }
%union.anon.1 = type { i64 }
%struct.FFBufQueue = type { [1024 x ptr], i16, i16 }
%struct.AVFilterLink = type { ptr, ptr, ptr, ptr, i32, i32, i32, i32, %struct.AVRational, i32, i32, i32, %struct.AVChannelLayout, %struct.AVRational, ptr, i32, %struct.AVFilterFormatsConfig, %struct.AVFilterFormatsConfig }
%struct.AVRational = type { i32, i32 }
%struct.AVFilterFormatsConfig = type { ptr, ptr, ptr, ptr, ptr }
%struct.ChannelContext = type { i32, i32, [882000 x %struct.PeriodItem], double, double, double, i32, i32, i32 }
%struct.PeriodItem = type { i32, i32, double, double }

; Function Attrs: nounwind uwtable
define internal i32 @config_input(ptr noundef %0) #1 {
  %2 = alloca i32, align 4
  %3 = alloca ptr, align 8
  %4 = alloca ptr, align 8
  %5 = alloca ptr, align 8
  %6 = alloca i32, align 4
  %7 = alloca i32, align 4
  %8 = alloca ptr, align 8
  store ptr %0, ptr %3, align 8, !tbaa !36
  call void @llvm.lifetime.start.p0(i64 8, ptr %4) #9
  %9 = load ptr, ptr %3, align 8, !tbaa !36
  %10 = getelementptr inbounds nuw %struct.AVFilterLink, ptr %9, i32 0, i32 2
  %11 = load ptr, ptr %10, align 8, !tbaa !52
  store ptr %11, ptr %4, align 8, !tbaa !4
  call void @llvm.lifetime.start.p0(i64 8, ptr %5) #9
  %12 = load ptr, ptr %4, align 8, !tbaa !4
  %13 = getelementptr inbounds nuw %struct.AVFilterContext, ptr %12, i32 0, i32 9
  %14 = load ptr, ptr %13, align 8, !tbaa !9
  store ptr %14, ptr %5, align 8, !tbaa !22
  %15 = load ptr, ptr %3, align 8, !tbaa !36
  %16 = getelementptr inbounds nuw %struct.AVFilterLink, ptr %15, i32 0, i32 11
  %17 = load i32, ptr %16, align 8, !tbaa !57
  %18 = sdiv i32 %17, 10
  %19 = load ptr, ptr %5, align 8, !tbaa !22
  %20 = getelementptr inbounds nuw %struct.SpeechNormalizerContext, ptr %19, i32 0, i32 14
  store i32 %18, ptr %20, align 8, !tbaa !58
  %21 = load ptr, ptr %5, align 8, !tbaa !22
  %22 = getelementptr inbounds nuw %struct.SpeechNormalizerContext, ptr %21, i32 0, i32 13
  store double 1.000000e+00, ptr %22, align 8, !tbaa !34
  %23 = load ptr, ptr %3, align 8, !tbaa !36
  %24 = getelementptr inbounds nuw %struct.AVFilterLink, ptr %23, i32 0, i32 12
  %25 = getelementptr inbounds nuw %struct.AVChannelLayout, ptr %24, i32 0, i32 1
  %26 = load i32, ptr %25, align 4, !tbaa !59
  %27 = sext i32 %26 to i64
  %28 = call noalias ptr @av_calloc(i64 noundef %27, i64 noundef 21168048)
  %29 = load ptr, ptr %5, align 8, !tbaa !22
  %30 = getelementptr inbounds nuw %struct.SpeechNormalizerContext, ptr %29, i32 0, i32 12
  store ptr %28, ptr %30, align 8, !tbaa !60
  %31 = load ptr, ptr %5, align 8, !tbaa !22
  %32 = getelementptr inbounds nuw %struct.SpeechNormalizerContext, ptr %31, i32 0, i32 12
  %33 = load ptr, ptr %32, align 8, !tbaa !60
  %34 = icmp ne ptr %33, null
  br i1 %34, label %36, label %35

35:                                               ; preds = %1
  store i32 -12, ptr %2, align 4
  store i32 1, ptr %6, align 4
  br label %86

36:                                               ; preds = %1
  call void @llvm.lifetime.start.p0(i64 4, ptr %7) #9
  store i32 0, ptr %7, align 4, !tbaa !25
  br label %37

37:                                               ; preds = %59, %36
  %38 = load i32, ptr %7, align 4, !tbaa !25
  %39 = load ptr, ptr %3, align 8, !tbaa !36
  %40 = getelementptr inbounds nuw %struct.AVFilterLink, ptr %39, i32 0, i32 12
  %41 = getelementptr inbounds nuw %struct.AVChannelLayout, ptr %40, i32 0, i32 1
  %42 = load i32, ptr %41, align 4, !tbaa !59
  %43 = icmp slt i32 %38, %42
  br i1 %43, label %45, label %44

44:                                               ; preds = %37
  store i32 2, ptr %6, align 4
  call void @llvm.lifetime.end.p0(i64 4, ptr %7) #9
  br label %62

45:                                               ; preds = %37
  call void @llvm.lifetime.start.p0(i64 8, ptr %8) #9
  %46 = load ptr, ptr %5, align 8, !tbaa !22
  %47 = getelementptr inbounds nuw %struct.SpeechNormalizerContext, ptr %46, i32 0, i32 12
  %48 = load ptr, ptr %47, align 8, !tbaa !60
  %49 = load i32, ptr %7, align 4, !tbaa !25
  %50 = sext i32 %49 to i64
  %51 = getelementptr inbounds %struct.ChannelContext, ptr %48, i64 %50
  store ptr %51, ptr %8, align 8, !tbaa !61
  %52 = load ptr, ptr %8, align 8, !tbaa !61
  %53 = getelementptr inbounds nuw %struct.ChannelContext, ptr %52, i32 0, i32 0
  store i32 -1, ptr %53, align 8, !tbaa !62
  %54 = load ptr, ptr %5, align 8, !tbaa !22
  %55 = getelementptr inbounds nuw %struct.SpeechNormalizerContext, ptr %54, i32 0, i32 3
  %56 = load double, ptr %55, align 8, !tbaa !64
  %57 = load ptr, ptr %8, align 8, !tbaa !61
  %58 = getelementptr inbounds nuw %struct.ChannelContext, ptr %57, i32 0, i32 3
  store double %56, ptr %58, align 8, !tbaa !65
  call void @llvm.lifetime.end.p0(i64 8, ptr %8) #9
  br label %59

59:                                               ; preds = %45
  %60 = load i32, ptr %7, align 4, !tbaa !25
  %61 = add nsw i32 %60, 1
  store i32 %61, ptr %7, align 4, !tbaa !25
  br label %37, !llvm.loop !66

62:                                               ; preds = %44
  %63 = load ptr, ptr %3, align 8, !tbaa !36
  %64 = getelementptr inbounds nuw %struct.AVFilterLink, ptr %63, i32 0, i32 5
  %65 = load i32, ptr %64, align 4, !tbaa !68
  switch i32 %65, label %84 [
    i32 8, label %66
    i32 9, label %75
  ]

66:                                               ; preds = %62
  %67 = load ptr, ptr %5, align 8, !tbaa !22
  %68 = getelementptr inbounds nuw %struct.SpeechNormalizerContext, ptr %67, i32 0, i32 18
  store ptr @analyze_channel_flt, ptr %68, align 8, !tbaa !69
  %69 = load ptr, ptr %5, align 8, !tbaa !22
  %70 = getelementptr inbounds nuw %struct.SpeechNormalizerContext, ptr %69, i32 0, i32 19
  %71 = getelementptr inbounds [2 x ptr], ptr %70, i64 0, i64 0
  store ptr @filter_channels_flt, ptr %71, align 8, !tbaa !70
  %72 = load ptr, ptr %5, align 8, !tbaa !22
  %73 = getelementptr inbounds nuw %struct.SpeechNormalizerContext, ptr %72, i32 0, i32 19
  %74 = getelementptr inbounds [2 x ptr], ptr %73, i64 0, i64 1
  store ptr @filter_link_channels_flt, ptr %74, align 8, !tbaa !70
  br label %85

75:                                               ; preds = %62
  %76 = load ptr, ptr %5, align 8, !tbaa !22
  %77 = getelementptr inbounds nuw %struct.SpeechNormalizerContext, ptr %76, i32 0, i32 18
  store ptr @analyze_channel_dbl, ptr %77, align 8, !tbaa !69
  %78 = load ptr, ptr %5, align 8, !tbaa !22
  %79 = getelementptr inbounds nuw %struct.SpeechNormalizerContext, ptr %78, i32 0, i32 19
  %80 = getelementptr inbounds [2 x ptr], ptr %79, i64 0, i64 0
  store ptr @filter_channels_dbl, ptr %80, align 8, !tbaa !70
  %81 = load ptr, ptr %5, align 8, !tbaa !22
  %82 = getelementptr inbounds nuw %struct.SpeechNormalizerContext, ptr %81, i32 0, i32 19
  %83 = getelementptr inbounds [2 x ptr], ptr %82, i64 0, i64 1
  store ptr @filter_link_channels_dbl, ptr %83, align 8, !tbaa !70
  br label %85

84:                                               ; preds = %62
  br label %85

85:                                               ; preds = %84, %75, %66
  store i32 0, ptr %2, align 4
  store i32 1, ptr %6, align 4
  br label %86

86:                                               ; preds = %85, %35
  call void @llvm.lifetime.end.p0(i64 8, ptr %5) #9
  call void @llvm.lifetime.end.p0(i64 8, ptr %4) #9
  %87 = load i32, ptr %2, align 4
  ret i32 %87
}