; Function Attrs: nounwind uwtable
define internal range(i32 -12, 1) i32 @config_input(ptr noundef readonly captures(none) %0) #1 {
  %2 = getelementptr inbounds nuw i8, ptr %0, i64 16
  %3 = load ptr, ptr %2, align 8, !tbaa !65
  %4 = getelementptr inbounds nuw i8, ptr %3, i64 72
  %5 = load ptr, ptr %4, align 8, !tbaa !4
  %6 = getelementptr inbounds nuw i8, ptr %0, i64 64
  %7 = load i32, ptr %6, align 8, !tbaa !52
  %8 = sdiv i32 %7, 10
  %9 = getelementptr inbounds nuw i8, ptr %5, i64 120
  store i32 %8, ptr %9, align 8, !tbaa !66
  %10 = getelementptr inbounds nuw i8, ptr %5, i64 112
  store double 1.000000e+00, ptr %10, align 8, !tbaa !34
  %11 = getelementptr inbounds nuw i8, ptr %0, i64 76
  %12 = load i32, ptr %11, align 4, !tbaa !59
  %13 = sext i32 %12 to i64
  %14 = tail call noalias ptr @av_calloc(i64 noundef %13, i64 noundef 21168048) #11
  %15 = getelementptr inbounds nuw i8, ptr %5, i64 104
  store ptr %14, ptr %15, align 8, !tbaa !41
  %.not = icmp eq ptr %14, null
  br i1 %.not, label %29, label %.preheader

.preheader:                                       ; preds = %1
  %16 = load i32, ptr %11, align 4, !tbaa !59
  %17 = icmp sgt i32 %16, 0
  br i1 %17, label %.lr.ph, label %._crit_edge

.lr.ph:                                           ; preds = %.preheader
  %18 = getelementptr inbounds nuw i8, ptr %5, i64 24
  %19 = load double, ptr %18, align 8, !tbaa !67
  %wide.trip.count = zext nneg i32 %16 to i64
  br label %22

._crit_edge:                                      ; preds = %22, %.preheader
  %20 = getelementptr inbounds nuw i8, ptr %0, i64 36
  %21 = load i32, ptr %20, align 4, !tbaa !68
  switch i32 %21, label %29 [
    i32 8, label %.sink.split
    i32 9, label %25
  ]

22:                                               ; preds = %.lr.ph, %22
  %indvars.iv = phi i64 [ 0, %.lr.ph ], [ %indvars.iv.next, %22 ]
  %23 = getelementptr inbounds nuw %struct.ChannelContext, ptr %14, i64 %indvars.iv
  store i32 -1, ptr %23, align 8, !tbaa !69
  %24 = getelementptr inbounds nuw i8, ptr %23, i64 21168008
  store double %19, ptr %24, align 8, !tbaa !71
  %indvars.iv.next = add nuw nsw i64 %indvars.iv, 1
  %exitcond.not = icmp eq i64 %indvars.iv.next, %wide.trip.count
  br i1 %exitcond.not, label %._crit_edge, label %22, !llvm.loop !72

25:                                               ; preds = %._crit_edge
  br label %.sink.split

.sink.split:                                      ; preds = %._crit_edge, %25
  %analyze_channel_flt.sink = phi ptr [ @analyze_channel_dbl, %25 ], [ @analyze_channel_flt, %._crit_edge ]
  %filter_channels_flt.sink = phi ptr [ @filter_channels_dbl, %25 ], [ @filter_channels_flt, %._crit_edge ]
  %filter_link_channels_flt.sink = phi ptr [ @filter_link_channels_dbl, %25 ], [ @filter_link_channels_flt, %._crit_edge ]
  %26 = getelementptr inbounds nuw i8, ptr %5, i64 8336
  store ptr %analyze_channel_flt.sink, ptr %26, align 8, !tbaa !60
  %27 = getelementptr inbounds nuw i8, ptr %5, i64 8344
  store ptr %filter_channels_flt.sink, ptr %27, align 8, !tbaa !50
  %28 = getelementptr inbounds nuw i8, ptr %5, i64 8352
  store ptr %filter_link_channels_flt.sink, ptr %28, align 8, !tbaa !50
  br label %29

29:                                               ; preds = %.sink.split, %._crit_edge, %1
  %.0 = phi i32 [ -12, %1 ], [ 0, %._crit_edge ], [ 0, %.sink.split ]
  ret i32 %.0
}